; Function Attrs: mustprogress nofree norecurse nosync nounwind willreturn memory(read, inaccessiblemem: none) uwtable
define dso_local noundef zeroext i1 @_ZN5clang7ODRHash22isSubDeclToBeProcessedEPKNS_4DeclEPKNS_11DeclContextE(ptr noundef readonly captures(none) %0, ptr noundef readnone %1) local_unnamed_addr #2 align 2 {
  %3 = getelementptr inbounds nuw i8, ptr %0, i64 28
  %4 = load i32, ptr %3, align 4
  %5 = and i32 %4, 512
  %.not5 = icmp eq i32 %5, 0
  br i1 %.not5, label %6, label %17

6:                                                ; preds = %2
  %7 = getelementptr inbounds nuw i8, ptr %0, i64 16
  %.0.copyload.i.i.i.i.i.i.i.i.i.i.i = load i64, ptr %7, align 8
  %8 = and i64 %.0.copyload.i.i.i.i.i.i.i.i.i.i.i, 4
  %9 = icmp eq i64 %8, 0
  %10 = and i64 %.0.copyload.i.i.i.i.i.i.i.i.i.i.i, -8
  %11 = inttoptr i64 %10 to ptr
  br i1 %9, label %_ZNK5clang4Decl14getDeclContextEv.exit, label %12

12:                                               ; preds = %6
  %13 = load ptr, ptr %11, align 8
  br label %_ZNK5clang4Decl14getDeclContextEv.exit

_ZNK5clang4Decl14getDeclContextEv.exit:           ; preds = %6, %12
  %.0.i.i = phi ptr [ %13, %12 ], [ %11, %6 ]
  %.not = icmp eq ptr %.0.i.i, %1
  br i1 %.not, label %14, label %17

14:                                               ; preds = %_ZNK5clang4Decl14getDeclContextEv.exit
  %15 = and i32 %4, 127
  switch i32 %15, label %17 [
    i32 85, label %16
    i32 35, label %16
    i32 33, label %16
    i32 32, label %16
    i32 30, label %16
    i32 46, label %16
    i32 82, label %16
    i32 68, label %16
    i32 8, label %16
    i32 62, label %16
    i32 61, label %16
    i32 37, label %16
    i32 15, label %16
    i32 47, label %16
    i32 72, label %16
  ]

16:                                               ; preds = %14, %14, %14, %14, %14, %14, %14, %14, %14, %14, %14, %14, %14, %14, %14
  br label %17

17:                                               ; preds = %14, %_ZNK5clang4Decl14getDeclContextEv.exit, %2, %16
  %.0 = phi i1 [ true, %16 ], [ false, %2 ], [ false, %_ZNK5clang4Decl14getDeclContextEv.exit ], [ false, %14 ]
  ret i1 %.0
}